; Function Attrs: inlinehint nofree norecurse nosync nounwind memory(read, inaccessiblemem: none) uwtable
define internal fastcc noundef ptr @Gia_ManHashFind(ptr noundef readonly captures(none) %0, i32 noundef %1, i32 noundef %2, i32 noundef %3) unnamed_addr #1 {
  %5 = getelementptr i8, ptr %0, i64 100
  %.val = load i32, ptr %5, align 4, !tbaa !3
  %6 = mul nsw i32 %3, 2011
  %7 = ashr i32 %1, 1
  %8 = mul nsw i32 %7, 7937
  %9 = ashr i32 %2, 1
  %10 = mul nsw i32 %9, 2971
  %11 = trunc i32 %1 to i1
  %12 = select i1 %11, i32 911, i32 0
  %13 = trunc i32 %2 to i1
  %14 = select i1 %13, i32 353, i32 0
  %15 = add i32 %12, %8
  %16 = add i32 %15, %6
  %17 = add i32 %16, %10
  %18 = add i32 %17, %14
  %19 = urem i32 %18, %.val
  %20 = getelementptr i8, ptr %0, i64 104
  %.val23 = load ptr, ptr %20, align 8, !tbaa !10
  %21 = sext i32 %19 to i64
  %22 = getelementptr inbounds i32, ptr %.val23, i64 %21
  %23 = getelementptr inbounds nuw i8, ptr %0, i64 40
  %24 = load i32, ptr %22, align 4, !tbaa !11
  %.not30 = icmp eq i32 %24, 0
  br i1 %.not30, label %.thread, label %.lr.ph

.lr.ph:                                           ; preds = %4
  %25 = getelementptr i8, ptr %0, i64 32
  %.val25 = load ptr, ptr %25, align 8, !tbaa !12
  %26 = getelementptr i8, ptr %0, i64 88
  br label %27

27:                                               ; preds = %.lr.ph, %57
  %28 = phi i32 [ %24, %.lr.ph ], [ %59, %57 ]
  %.02131 = phi ptr [ %22, %.lr.ph ], [ %58, %57 ]
  %29 = sext i32 %28 to i64
  %30 = getelementptr inbounds %struct.Gia_Obj_t_, ptr %.val25, i64 %29
  %.val26 = load i64, ptr %30, align 4
  %31 = trunc i64 %.val26 to i32
  %32 = and i32 %31, 536870911
  %33 = sub nsw i32 %28, %32
  %34 = lshr i32 %31, 29
  %35 = and i32 %34, 1
  %36 = shl nsw i32 %33, 1
  %37 = or disjoint i32 %36, %35
  %38 = icmp eq i32 %37, %1
  br i1 %38, label %39, label %57

39:                                               ; preds = %27
  %40 = lshr i64 %.val26, 32
  %41 = trunc nuw i64 %40 to i32
  %42 = and i32 %41, 536870911
  %43 = sub nsw i32 %28, %42
  %44 = lshr i64 %.val26, 61
  %45 = trunc nuw nsw i64 %44 to i32
  %46 = and i32 %45, 1
  %47 = shl nsw i32 %43, 1
  %48 = or disjoint i32 %47, %46
  %49 = icmp eq i32 %48, %2
  br i1 %49, label %50, label %57

50:                                               ; preds = %39
  %51 = load ptr, ptr %23, align 8, !tbaa !31
  %52 = icmp eq ptr %51, null
  br i1 %52, label %.thread, label %Gia_ObjFaninLit2p.exit

Gia_ObjFaninLit2p.exit:                           ; preds = %50
  %53 = shl nsw i64 %29, 2
  %54 = getelementptr inbounds i8, ptr %51, i64 %53
  %55 = load i32, ptr %54, align 4, !tbaa !11
  %.not7.i = icmp eq i32 %55, 0
  %spec.select.i = select i1 %.not7.i, i32 -1, i32 %55
  %56 = icmp eq i32 %spec.select.i, %3
  br i1 %56, label %.thread, label %57

57:                                               ; preds = %Gia_ObjFaninLit2p.exit, %39, %27
  %.val24 = load ptr, ptr %26, align 8, !tbaa !10
  %58 = getelementptr inbounds i32, ptr %.val24, i64 %29
  %59 = load i32, ptr %58, align 4, !tbaa !11
  %.not = icmp eq i32 %59, 0
  br i1 %.not, label %.thread, label %27, !llvm.loop !32

.thread:                                          ; preds = %57, %Gia_ObjFaninLit2p.exit, %50, %4
  %.021.lcssa = phi ptr [ %22, %4 ], [ %.02131, %50 ], [ %.02131, %Gia_ObjFaninLit2p.exit ], [ %58, %57 ]
  ret ptr %.021.lcssa
}